target datalayout = "e-m:e-p270:32:32-p271:32:32-p272:64:64-i64:64-i128:128-f80:128-n8:16:32:64-S128"
target triple = "x86_64-pc-linux-gnu"

%struct._zval_struct = type { %union._zend_value, %union.anon, %union.anon.2 }
%union._zend_value = type { i64 }
%union.anon = type { i32 }
%union.anon.2 = type { i32 }
%struct._zend_execute_data = type { ptr, ptr, ptr, ptr, %struct._zval_struct, ptr, ptr, ptr, ptr }

; Function Attrs: nounwind uwtable
define hidden void @zif_is_scalar(ptr noundef %0, ptr noundef %1) #0 {
  %3 = alloca ptr, align 8
  %4 = alloca ptr, align 8
  %5 = alloca ptr, align 8
  %6 = alloca ptr, align 8
  %7 = alloca i8, align 1
  %8 = alloca ptr, align 8
  %9 = alloca ptr, align 8
  %10 = alloca ptr, align 8
  %11 = alloca i32, align 4
  %12 = alloca i32, align 4
  %13 = alloca i32, align 4
  %14 = alloca i32, align 4
  %15 = alloca i32, align 4
  %16 = alloca ptr, align 8
  %17 = alloca ptr, align 8
  %18 = alloca i32, align 4
  %19 = alloca ptr, align 8
  %20 = alloca i8, align 1
  %21 = alloca i8, align 1
  %22 = alloca i32, align 4
  store ptr %0, ptr %8, align 8
  store ptr %1, ptr %9, align 8
  br label %23

23:                                               ; preds = %2
  store i32 0, ptr %11, align 4
  store i32 1, ptr %12, align 4
  store i32 1, ptr %13, align 4
  %24 = load ptr, ptr %8, align 8
  %25 = getelementptr inbounds %struct._zend_execute_data, ptr %24, i32 0, i32 4
  %26 = getelementptr inbounds %struct._zval_struct, ptr %25, i32 0, i32 2
  %27 = load i32, ptr %26, align 4
  store i32 %27, ptr %14, align 4
  store i32 0, ptr %15, align 4
  store ptr null, ptr %17, align 8
  store i32 0, ptr %18, align 4
  store ptr null, ptr %19, align 8
  store i8 0, ptr %20, align 1
  store i8 0, ptr %21, align 1
  store i32 0, ptr %22, align 4
  br label %28

28:                                               ; preds = %23
  %29 = load i32, ptr %14, align 4
  %30 = load i32, ptr %12, align 4
  %31 = icmp ult i32 %29, %30
  %32 = xor i1 %31, true
  %33 = xor i1 %32, true
  %34 = zext i1 %33 to i32
  %35 = sext i32 %34 to i64
  %36 = icmp ne i64 %35, 0
  br i1 %36, label %46, label %37

37:                                               ; preds = %28
  %38 = load i32, ptr %14, align 4
  %39 = load i32, ptr %13, align 4
  %40 = icmp ugt i32 %38, %39
  %41 = xor i1 %40, true
  %42 = xor i1 %41, true
  %43 = zext i1 %42 to i32
  %44 = sext i32 %43 to i64
  %45 = icmp ne i64 %44, 0
  br i1 %45, label %46, label %49

46:                                               ; preds = %37, %28
  %47 = load i32, ptr %12, align 4
  %48 = load i32, ptr %13, align 4
  call void @zend_wrong_parameters_count_error(i32 noundef %47, i32 noundef %48)
  store i32 1, ptr %22, align 4
  br label %115

49:                                               ; preds = %37
  %50 = load ptr, ptr %8, align 8
  %51 = getelementptr inbounds %struct._zval_struct, ptr %50, i64 4
  store ptr %51, ptr %16, align 8
  %52 = load i32, ptr %15, align 4
  %53 = add i32 %52, 1
  store i32 %53, ptr %15, align 4
  %54 = load i32, ptr %15, align 4
  %55 = load i32, ptr %12, align 4
  %56 = icmp ule i32 %54, %55
  br i1 %56, label %62, label %57

57:                                               ; preds = %49
  %58 = load i8, ptr %21, align 1
  %59 = trunc i8 %58 to i1
  %60 = zext i1 %59 to i32
  %61 = icmp eq i32 %60, 1
  br label %62

62:                                               ; preds = %57, %49
  %63 = phi i1 [ true, %49 ], [ %61, %57 ]
  call void @llvm.assume(i1 %63)
  %64 = load i32, ptr %15, align 4
  %65 = load i32, ptr %12, align 4
  %66 = icmp ugt i32 %64, %65
  br i1 %66, label %72, label %67

67:                                               ; preds = %62
  %68 = load i8, ptr %21, align 1
  %69 = trunc i8 %68 to i1
  %70 = zext i1 %69 to i32
  %71 = icmp eq i32 %70, 0
  br label %72

72:                                               ; preds = %67, %62
  %73 = phi i1 [ true, %62 ], [ %71, %67 ]
  call void @llvm.assume(i1 %73)
  %74 = load i8, ptr %21, align 1
  %75 = trunc i8 %74 to i1
  br i1 %75, label %76, label %87

76:                                               ; preds = %72
  %77 = load i32, ptr %15, align 4
  %78 = load i32, ptr %14, align 4
  %79 = icmp ugt i32 %77, %78
  %80 = xor i1 %79, true
  %81 = xor i1 %80, true
  %82 = zext i1 %81 to i32
  %83 = sext i32 %82 to i64
  %84 = icmp ne i64 %83, 0
  br i1 %84, label %85, label %86

85:                                               ; preds = %76
  br label %115

86:                                               ; preds = %76
  br label %87

87:                                               ; preds = %86, %72
  %88 = load ptr, ptr %16, align 8
  %89 = getelementptr inbounds %struct._zval_struct, ptr %88, i32 1
  store ptr %89, ptr %16, align 8
  %90 = load ptr, ptr %16, align 8
  store ptr %90, ptr %17, align 8
  %91 = load ptr, ptr %17, align 8
  store ptr %91, ptr %5, align 8
  store ptr %10, ptr %6, align 8
  store i8 0, ptr %7, align 1
  %92 = load i8, ptr %7, align 1
  %93 = trunc i8 %92 to i1
  br i1 %93, label %94, label %102

94:                                               ; preds = %87
  %95 = load ptr, ptr %5, align 8
  store ptr %95, ptr %4, align 8
  %96 = load ptr, ptr %4, align 8
  %97 = getelementptr inbounds %struct._zval_struct, ptr %96, i32 0, i32 1
  %98 = load i8, ptr %97, align 8
  %99 = zext i8 %98 to i32
  %100 = icmp eq i32 %99, 1
  br i1 %100, label %101, label %102

101:                                              ; preds = %94
  br label %104

102:                                              ; preds = %94, %87
  %103 = load ptr, ptr %5, align 8
  br label %104

104:                                              ; preds = %102, %101
  %105 = phi ptr [ null, %101 ], [ %103, %102 ]
  %106 = load ptr, ptr %6, align 8
  store ptr %105, ptr %106, align 8
  %107 = load i32, ptr %15, align 4
  %108 = load i32, ptr %13, align 4
  %109 = icmp eq i32 %107, %108
  br i1 %109, label %113, label %110

110:                                              ; preds = %104
  %111 = load i32, ptr %13, align 4
  %112 = icmp eq i32 %111, -1
  br label %113

113:                                              ; preds = %110, %104
  %114 = phi i1 [ true, %104 ], [ %112, %110 ]
  call void @llvm.assume(i1 %114)
  br label %115

115:                                              ; preds = %113, %85, %46
  %116 = load i32, ptr %22, align 4
  %117 = icmp ne i32 %116, 0
  %118 = xor i1 %117, true
  %119 = xor i1 %118, true
  %120 = zext i1 %119 to i32
  %121 = sext i32 %120 to i64
  %122 = icmp ne i64 %121, 0
  br i1 %122, label %123, label %129

123:                                              ; preds = %115
  %124 = load i32, ptr %22, align 4
  %125 = load i32, ptr %15, align 4
  %126 = load ptr, ptr %19, align 8
  %127 = load i32, ptr %18, align 4
  %128 = load ptr, ptr %17, align 8
  call void @zend_wrong_parameter_error(i32 noundef %124, i32 noundef %125, ptr noundef %126, i32 noundef %127, ptr noundef %128)
  br label %150

129:                                              ; preds = %115
  br label %130

130:                                              ; preds = %129
  %131 = load ptr, ptr %10, align 8
  store ptr %131, ptr %3, align 8
  %132 = load ptr, ptr %3, align 8
  %133 = getelementptr inbounds %struct._zval_struct, ptr %132, i32 0, i32 1
  %134 = load i8, ptr %133, align 8
  %135 = zext i8 %134 to i32
  switch i32 %135, label %143 [
    i32 2, label %136
    i32 3, label %136
    i32 5, label %136
    i32 4, label %136
    i32 6, label %136
  ]

136:                                              ; preds = %130, %130, %130, %130, %130
  br label %137

137:                                              ; preds = %136
  br label %138

138:                                              ; preds = %137
  %139 = load ptr, ptr %9, align 8
  %140 = getelementptr inbounds %struct._zval_struct, ptr %139, i32 0, i32 1
  store i32 3, ptr %140, align 8
  br label %141

141:                                              ; preds = %138
  br label %150

142:                                              ; No predecessors!
  br label %150

143:                                              ; preds = %130
  br label %144

144:                                              ; preds = %143
  br label %145

145:                                              ; preds = %144
  %146 = load ptr, ptr %9, align 8
  %147 = getelementptr inbounds %struct._zval_struct, ptr %146, i32 0, i32 1
  store i32 2, ptr %147, align 8
  br label %148

148:                                              ; preds = %145
  br label %150

149:                                              ; No predecessors!
  br label %150

150:                                              ; preds = %149, %148, %142, %141, %123
  ret void
}