; Function Attrs: nounwind uwtable
define hidden void @zif_is_scalar(ptr nocapture noundef readonly %0, ptr nocapture noundef writeonly %1) local_unnamed_addr #0 {
  %3 = getelementptr inbounds i8, ptr %0, i64 44
  %4 = load i32, ptr %3, align 4
  %cond = icmp eq i32 %4, 1
  br i1 %cond, label %6, label %5

5:                                                ; preds = %2
  tail call void @zend_wrong_parameters_count_error(i32 noundef 1, i32 noundef 1) #8
  tail call void @zend_wrong_parameter_error(i32 noundef 1, i32 noundef 0, ptr noundef null, i32 noundef 0, ptr noundef null) #8
  br label %12

6:                                                ; preds = %2
  %7 = getelementptr inbounds i8, ptr %0, i64 88
  %8 = load i8, ptr %7, align 8
  %.off = add i8 %8, -2
  %switch = icmp ult i8 %.off, 5
  %9 = getelementptr inbounds i8, ptr %1, i64 8
  br i1 %switch, label %10, label %11

10:                                               ; preds = %6
  store i32 3, ptr %9, align 8
  br label %12

11:                                               ; preds = %6
  store i32 2, ptr %9, align 8
  br label %12

12:                                               ; preds = %11, %10, %5
  ret void
}